target datalayout = "e-m:e-p270:32:32-p271:32:32-p272:64:64-i64:64-i128:128-f80:128-n8:16:32:64-S128"
target triple = "x86_64-pc-linux-gnu"

@.str.45 = private unnamed_addr constant [43 x i8] c"dns_query_update_info: Invalid arguments.\0A\00", align 1
@.str.46 = private unnamed_addr constant [54 x i8] c"DNS Update Info disabled. Falling back to HTTP mode.\0A\00", align 1
@.str.47 = private unnamed_addr constant [47 x i8] c"Invalid DNS reply. Falling back to HTTP mode.\0A\00", align 1
@.str.48 = private unnamed_addr constant [9 x i8] c"TTL: %d\0A\00", align 1
@.str.49 = private unnamed_addr constant [2 x i8] c":\00", align 1
@.str.50 = private unnamed_addr constant [54 x i8] c"Failed to find Record Time field in DNS Update Info.\0A\00", align 1
@.str.51 = private unnamed_addr constant [36 x i8] c"DNS record is older than %d hours.\0A\00", align 1
@.str.52 = private unnamed_addr constant [57 x i8] c"Failed to find Version Warning Flag in DNS Update Info.\0A\00", align 1
@.str.53 = private unnamed_addr constant [54 x i8] c"Failed to find New Version field in DNS Update Info.\0A\00", align 1
@.str.54 = private unnamed_addr constant [57 x i8] c"fc_dns_query_update_info: Software version from DNS: %s\0A\00", align 1
@.str.55 = private unnamed_addr constant [6 x i8] c"devel\00", align 1
@.str.56 = private unnamed_addr constant [5 x i8] c"beta\00", align 1
@.str.57 = private unnamed_addr constant [3 x i8] c"rc\00", align 1
@.str.58 = private unnamed_addr constant [39 x i8] c"Your ClamAV installation is OUTDATED!\0A\00", align 1
@.str.59 = private unnamed_addr constant [43 x i8] c"Local version: %s Recommended version: %s\0A\00", align 1
@.str.60 = private unnamed_addr constant [66 x i8] c"DON'T PANIC! Read https://docs.clamav.net/manual/Installing.html\0A\00", align 1

; Function Attrs: nounwind uwtable
define i32 @fc_dns_query_update_info(ptr noundef %0, ptr noundef %1, ptr noundef %2) #0 {
  %4 = alloca ptr, align 8
  %5 = alloca ptr, align 8
  %6 = alloca ptr, align 8
  %7 = alloca i32, align 4
  %8 = alloca ptr, align 8
  %9 = alloca i32, align 4
  %10 = alloca ptr, align 8
  %11 = alloca i32, align 4
  %12 = alloca i64, align 8
  %13 = alloca i32, align 4
  %14 = alloca [32 x i8], align 16
  %15 = alloca ptr, align 8
  store ptr %0, ptr %4, align 8
  store ptr %1, ptr %5, align 8
  store ptr %2, ptr %6, align 8
  store i32 11, ptr %7, align 4
  store ptr null, ptr %8, align 8
  store ptr null, ptr %10, align 8
  store i32 1, ptr %13, align 4
  %16 = load ptr, ptr %5, align 8
  %17 = icmp eq ptr null, %16
  br i1 %17, label %21, label %18

18:                                               ; preds = %3
  %19 = load ptr, ptr %6, align 8
  %20 = icmp eq ptr null, %19
  br i1 %20, label %21, label %23

21:                                               ; preds = %18, %3
  %22 = call i32 (i32, ptr, ...) @logg(i32 noundef 4, ptr noundef @.str.45)
  store i32 16, ptr %7, align 4
  br label %140

23:                                               ; preds = %18
  %24 = load ptr, ptr %5, align 8
  store ptr null, ptr %24, align 8
  %25 = load ptr, ptr %6, align 8
  store ptr null, ptr %25, align 8
  %26 = load ptr, ptr %4, align 8
  %27 = icmp eq ptr %26, null
  br i1 %27, label %28, label %30

28:                                               ; preds = %23
  %29 = call i32 (i32, ptr, ...) @logg(i32 noundef 4, ptr noundef @.str.46)
  br label %140

30:                                               ; preds = %23
  %31 = load ptr, ptr %4, align 8
  %32 = call ptr @dnsquery(ptr noundef %31, i32 noundef 16, ptr noundef %9)
  store ptr %32, ptr %8, align 8
  %33 = icmp eq ptr null, %32
  br i1 %33, label %34, label %36

34:                                               ; preds = %30
  %35 = call i32 (i32, ptr, ...) @logg(i32 noundef 4, ptr noundef @.str.47)
  br label %140

36:                                               ; preds = %30
  %37 = load i32, ptr %9, align 4
  %38 = call i32 (i32, ptr, ...) @logg(i32 noundef 2, ptr noundef @.str.48, i32 noundef %37)
  %39 = load ptr, ptr %8, align 8
  %40 = call ptr @cli_strtok(ptr noundef %39, i32 noundef 3, ptr noundef @.str.49)
  store ptr %40, ptr %10, align 8
  %41 = icmp eq ptr null, %40
  br i1 %41, label %42, label %44

42:                                               ; preds = %36
  %43 = call i32 (i32, ptr, ...) @logg(i32 noundef 4, ptr noundef @.str.50)
  br label %140

44:                                               ; preds = %36
  %45 = load ptr, ptr %10, align 8
  %46 = call i32 @atoi(ptr noundef %45) #8
  store i32 %46, ptr %11, align 4
  %47 = load ptr, ptr %10, align 8
  call void @free(ptr noundef %47) #10
  store ptr null, ptr %10, align 8
  %48 = call i64 @time(ptr noundef %12) #10
  %49 = load i64, ptr %12, align 8
  %50 = trunc i64 %49 to i32
  %51 = load i32, ptr %11, align 4
  %52 = sub nsw i32 %50, %51
  %53 = icmp sgt i32 %52, 43200
  br i1 %53, label %54, label %56

54:                                               ; preds = %44
  %55 = call i32 (i32, ptr, ...) @logg(i32 noundef 4, ptr noundef @.str.51, i32 noundef 12)
  br label %140

56:                                               ; preds = %44
  %57 = load ptr, ptr %8, align 8
  %58 = call ptr @cli_strtok(ptr noundef %57, i32 noundef 4, ptr noundef @.str.49)
  store ptr %58, ptr %10, align 8
  %59 = icmp eq ptr null, %58
  br i1 %59, label %60, label %62

60:                                               ; preds = %56
  %61 = call i32 (i32, ptr, ...) @logg(i32 noundef 4, ptr noundef @.str.52)
  br label %140

62:                                               ; preds = %56
  %63 = load ptr, ptr %10, align 8
  %64 = load i8, ptr %63, align 1
  %65 = sext i8 %64 to i32
  %66 = icmp eq i32 %65, 48
  br i1 %66, label %67, label %68

67:                                               ; preds = %62
  store i32 0, ptr %13, align 4
  br label %68

68:                                               ; preds = %67, %62
  %69 = load ptr, ptr %10, align 8
  call void @free(ptr noundef %69) #10
  store ptr null, ptr %10, align 8
  %70 = load ptr, ptr %8, align 8
  %71 = call ptr @cli_strtok(ptr noundef %70, i32 noundef 0, ptr noundef @.str.49)
  store ptr %71, ptr %10, align 8
  %72 = icmp eq ptr null, %71
  br i1 %72, label %73, label %75

73:                                               ; preds = %68
  %74 = call i32 (i32, ptr, ...) @logg(i32 noundef 4, ptr noundef @.str.53)
  br label %140

75:                                               ; preds = %68
  %76 = load ptr, ptr %10, align 8
  %77 = call i32 (i32, ptr, ...) @logg(i32 noundef 2, ptr noundef @.str.54, ptr noundef %76)
  %78 = getelementptr inbounds [32 x i8], ptr %14, i64 0, i64 0
  %79 = call ptr @get_version()
  %80 = call ptr @strncpy(ptr noundef %78, ptr noundef %79, i64 noundef 32) #10
  %81 = getelementptr inbounds [32 x i8], ptr %14, i64 0, i64 31
  store i8 0, ptr %81, align 1
  %82 = load i32, ptr %13, align 4
  %83 = icmp ne i32 %82, 0
  br i1 %83, label %84, label %136

84:                                               ; preds = %75
  %85 = getelementptr inbounds [32 x i8], ptr %14, i64 0, i64 0
  %86 = call ptr @strstr(ptr noundef %85, ptr noundef @.str.55) #8
  %87 = icmp ne ptr %86, null
  br i1 %87, label %135, label %88

88:                                               ; preds = %84
  %89 = getelementptr inbounds [32 x i8], ptr %14, i64 0, i64 0
  %90 = call ptr @strstr(ptr noundef %89, ptr noundef @.str.56) #8
  %91 = icmp ne ptr %90, null
  br i1 %91, label %135, label %92

92:                                               ; preds = %88
  %93 = getelementptr inbounds [32 x i8], ptr %14, i64 0, i64 0
  %94 = call ptr @strstr(ptr noundef %93, ptr noundef @.str.57) #8
  %95 = icmp ne ptr %94, null
  br i1 %95, label %135, label %96

96:                                               ; preds = %92
  %97 = getelementptr inbounds [32 x i8], ptr %14, i64 0, i64 0
  %98 = call ptr @strchr(ptr noundef %97, i32 noundef 45) #8
  store ptr %98, ptr %15, align 8
  %99 = load ptr, ptr %15, align 8
  %100 = icmp ne ptr %99, null
  br i1 %100, label %101, label %113

101:                                              ; preds = %96
  %102 = getelementptr inbounds [32 x i8], ptr %14, i64 0, i64 0
  %103 = load ptr, ptr %15, align 8
  %104 = getelementptr inbounds [32 x i8], ptr %14, i64 0, i64 0
  %105 = ptrtoint ptr %103 to i64
  %106 = ptrtoint ptr %104 to i64
  %107 = sub i64 %105, %106
  %108 = load ptr, ptr %10, align 8
  %109 = load ptr, ptr %10, align 8
  %110 = call i64 @strlen(ptr noundef %109) #8
  %111 = call i32 @version_string_compare(ptr noundef %102, i64 noundef %107, ptr noundef %108, i64 noundef %110)
  %112 = icmp sgt i32 0, %111
  br i1 %112, label %125, label %113

113:                                              ; preds = %101, %96
  %114 = load ptr, ptr %15, align 8
  %115 = icmp ne ptr %114, null
  br i1 %115, label %134, label %116

116:                                              ; preds = %113
  %117 = getelementptr inbounds [32 x i8], ptr %14, i64 0, i64 0
  %118 = getelementptr inbounds [32 x i8], ptr %14, i64 0, i64 0
  %119 = call i64 @strlen(ptr noundef %118) #8
  %120 = load ptr, ptr %10, align 8
  %121 = load ptr, ptr %10, align 8
  %122 = call i64 @strlen(ptr noundef %121) #8
  %123 = call i32 @version_string_compare(ptr noundef %117, i64 noundef %119, ptr noundef %120, i64 noundef %122)
  %124 = icmp sgt i32 0, %123
  br i1 %124, label %125, label %134

125:                                              ; preds = %116, %101
  %126 = call i32 (i32, ptr, ...) @logg(i32 noundef 4, ptr noundef @.str.58)
  %127 = getelementptr inbounds [32 x i8], ptr %14, i64 0, i64 0
  %128 = load ptr, ptr %10, align 8
  %129 = call i32 (i32, ptr, ...) @logg(i32 noundef 4, ptr noundef @.str.59, ptr noundef %127, ptr noundef %128)
  %130 = call i32 (i32, ptr, ...) @logg(i32 noundef 0, ptr noundef @.str.60)
  %131 = load ptr, ptr %10, align 8
  %132 = call ptr @cli_safer_strdup(ptr noundef %131)
  %133 = load ptr, ptr %6, align 8
  store ptr %132, ptr %133, align 8
  br label %134

134:                                              ; preds = %125, %116, %113
  br label %135

135:                                              ; preds = %134, %92, %88, %84
  br label %136

136:                                              ; preds = %135, %75
  %137 = load ptr, ptr %10, align 8
  call void @free(ptr noundef %137) #10
  store ptr null, ptr %10, align 8
  %138 = load ptr, ptr %8, align 8
  %139 = load ptr, ptr %5, align 8
  store ptr %138, ptr %139, align 8
  store i32 0, ptr %7, align 4
  br label %140

140:                                              ; preds = %136, %73, %60, %54, %42, %34, %28, %21
  %141 = load i32, ptr %7, align 4
  %142 = icmp ne i32 0, %141
  br i1 %142, label %143, label %145

143:                                              ; preds = %140
  %144 = load ptr, ptr %8, align 8
  call void @free(ptr noundef %144) #10
  br label %145

145:                                              ; preds = %143, %140
  %146 = load i32, ptr %7, align 4
  ret i32 %146
}