; Function Attrs: nounwind uwtable
define range(i32 0, 17) i32 @fc_dns_query_update_info(ptr noundef %0, ptr noundef writeonly %1, ptr noundef writeonly %2) local_unnamed_addr #1 {
  %4 = alloca i32, align 4
  %5 = alloca i64, align 8
  %6 = alloca [32 x i8], align 16
  %7 = icmp eq ptr %1, null
  %8 = icmp eq ptr %2, null
  %or.cond = or i1 %7, %8
  br i1 %or.cond, label %9, label %11

9:                                                ; preds = %3
  %10 = tail call i32 (i32, ptr, ...) @logg(i32 noundef 4, ptr noundef nonnull @.str.45) #15
  br label %78

11:                                               ; preds = %3
  store ptr null, ptr %1, align 8
  store ptr null, ptr %2, align 8
  %12 = icmp eq ptr %0, null
  br i1 %12, label %13, label %15

13:                                               ; preds = %11
  %14 = tail call i32 (i32, ptr, ...) @logg(i32 noundef 4, ptr noundef nonnull @.str.46) #15
  br label %78

15:                                               ; preds = %11
  %16 = call ptr @dnsquery(ptr noundef nonnull %0, i32 noundef 16, ptr noundef nonnull %4) #15
  %17 = icmp eq ptr %16, null
  br i1 %17, label %18, label %20

18:                                               ; preds = %15
  %19 = call i32 (i32, ptr, ...) @logg(i32 noundef 4, ptr noundef nonnull @.str.47) #15
  br label %78

20:                                               ; preds = %15
  %21 = load i32, ptr %4, align 4
  %22 = call i32 (i32, ptr, ...) @logg(i32 noundef 2, ptr noundef nonnull @.str.48, i32 noundef %21) #15
  %23 = call ptr @cli_strtok(ptr noundef nonnull %16, i32 noundef 3, ptr noundef nonnull @.str.49) #15
  %24 = icmp eq ptr %23, null
  br i1 %24, label %25, label %27

25:                                               ; preds = %20
  %26 = call i32 (i32, ptr, ...) @logg(i32 noundef 4, ptr noundef nonnull @.str.50) #15
  br label %78

27:                                               ; preds = %20
  %28 = call i32 @atoi(ptr noundef nonnull %23) #17
  call void @free(ptr noundef nonnull %23) #15
  %29 = call i64 @time(ptr noundef nonnull %5) #15
  %30 = load i64, ptr %5, align 8
  %31 = trunc i64 %30 to i32
  %32 = sub nsw i32 %31, %28
  %33 = icmp sgt i32 %32, 43200
  br i1 %33, label %34, label %36

34:                                               ; preds = %27
  %35 = call i32 (i32, ptr, ...) @logg(i32 noundef 4, ptr noundef nonnull @.str.51, i32 noundef 12) #15
  br label %78

36:                                               ; preds = %27
  %37 = call ptr @cli_strtok(ptr noundef nonnull %16, i32 noundef 4, ptr noundef nonnull @.str.49) #15
  %38 = icmp eq ptr %37, null
  br i1 %38, label %39, label %41

39:                                               ; preds = %36
  %40 = call i32 (i32, ptr, ...) @logg(i32 noundef 4, ptr noundef nonnull @.str.52) #15
  br label %78

41:                                               ; preds = %36
  %42 = load i8, ptr %37, align 1
  call void @free(ptr noundef nonnull %37) #15
  %43 = call ptr @cli_strtok(ptr noundef nonnull %16, i32 noundef 0, ptr noundef nonnull @.str.49) #15
  %44 = icmp eq ptr %43, null
  br i1 %44, label %45, label %47

45:                                               ; preds = %41
  %46 = call i32 (i32, ptr, ...) @logg(i32 noundef 4, ptr noundef nonnull @.str.53) #15
  br label %78

47:                                               ; preds = %41
  %48 = icmp eq i8 %42, 48
  %49 = call i32 (i32, ptr, ...) @logg(i32 noundef 2, ptr noundef nonnull @.str.54, ptr noundef nonnull %43) #15
  %50 = call ptr @get_version() #15
  %51 = call ptr @strncpy(ptr noundef nonnull dereferenceable(1) %6, ptr noundef nonnull dereferenceable(1) %50, i64 noundef 32) #15
  %52 = getelementptr inbounds nuw i8, ptr %6, i64 31
  store i8 0, ptr %52, align 1
  br i1 %48, label %77, label %53

53:                                               ; preds = %47
  %54 = call ptr @strstr(ptr noundef nonnull dereferenceable(1) %6, ptr noundef nonnull dereferenceable(1) @.str.55) #17
  %.not = icmp eq ptr %54, null
  br i1 %.not, label %55, label %77

55:                                               ; preds = %53
  %56 = call ptr @strstr(ptr noundef nonnull dereferenceable(1) %6, ptr noundef nonnull dereferenceable(1) @.str.56) #17
  %.not42 = icmp eq ptr %56, null
  br i1 %.not42, label %57, label %77

57:                                               ; preds = %55
  %58 = call ptr @strstr(ptr noundef nonnull dereferenceable(1) %6, ptr noundef nonnull dereferenceable(1) @.str.57) #17
  %.not43 = icmp eq ptr %58, null
  br i1 %.not43, label %59, label %77

59:                                               ; preds = %57
  %60 = call ptr @strchr(ptr noundef nonnull dereferenceable(1) %6, i32 noundef 45) #17
  %.not44 = icmp eq ptr %60, null
  br i1 %.not44, label %.critedge, label %61

61:                                               ; preds = %59
  %62 = ptrtoint ptr %60 to i64
  %63 = ptrtoint ptr %6 to i64
  %64 = sub i64 %62, %63
  %65 = call i64 @strlen(ptr noundef nonnull dereferenceable(1) %43) #17
  %66 = call i32 @version_string_compare(ptr noundef nonnull %6, i64 noundef %64, ptr noundef nonnull %43, i64 noundef %65)
  %67 = icmp slt i32 %66, 0
  br i1 %67, label %72, label %77

.critedge:                                        ; preds = %59
  %68 = call i64 @strlen(ptr noundef nonnull dereferenceable(1) %6) #17
  %69 = call i64 @strlen(ptr noundef nonnull dereferenceable(1) %43) #17
  %70 = call i32 @version_string_compare(ptr noundef nonnull %6, i64 noundef %68, ptr noundef nonnull %43, i64 noundef %69)
  %71 = icmp slt i32 %70, 0
  br i1 %71, label %72, label %77

72:                                               ; preds = %.critedge, %61
  %73 = call i32 (i32, ptr, ...) @logg(i32 noundef 4, ptr noundef nonnull @.str.58) #15
  %74 = call i32 (i32, ptr, ...) @logg(i32 noundef 4, ptr noundef nonnull @.str.59, ptr noundef nonnull %6, ptr noundef nonnull %43) #15
  %75 = call i32 (i32, ptr, ...) @logg(i32 noundef 0, ptr noundef nonnull @.str.60) #15
  %76 = call ptr @cli_safer_strdup(ptr noundef nonnull %43) #15
  store ptr %76, ptr %2, align 8
  br label %77

77:                                               ; preds = %47, %.critedge, %72, %57, %55, %53, %61
  call void @free(ptr noundef nonnull %43) #15
  store ptr %16, ptr %1, align 8
  br label %79

78:                                               ; preds = %9, %13, %18, %25, %34, %39, %45
  %.033.ph = phi ptr [ %16, %45 ], [ %16, %39 ], [ %16, %34 ], [ %16, %25 ], [ null, %18 ], [ null, %13 ], [ null, %9 ]
  %.0.ph = phi i32 [ 11, %45 ], [ 11, %39 ], [ 11, %34 ], [ 11, %25 ], [ 11, %18 ], [ 11, %13 ], [ 16, %9 ]
  call void @free(ptr noundef %.033.ph) #15
  br label %79

79:                                               ; preds = %77, %78
  %.051 = phi i32 [ %.0.ph, %78 ], [ 0, %77 ]
  ret i32 %.051
}